; Function Attrs: nofree norecurse nosync nounwind memory(argmem: readwrite) uwtable
define i32 @sp_to_unsigned_bin_at_pos(i32 noundef %0, ptr noundef readonly captures(address_is_null) %1, ptr noundef writeonly captures(address_is_null) %2) local_unnamed_addr #8 {
  %.not.i = icmp eq ptr %1, null
  br i1 %.not.i, label %sp_to_unsigned_bin_len.exit, label %4

4:                                                ; preds = %3
  %5 = load i16, ptr %1, align 8, !tbaa !12
  %.not25.i.i = icmp eq i16 %5, 0
  br i1 %.not25.i.i, label %sp_unsigned_bin_size.exit, label %6

6:                                                ; preds = %4
  %7 = getelementptr inbounds nuw i8, ptr %1, i64 8
  %8 = zext i16 %5 to i64
  br label %9

9:                                                ; preds = %11, %6
  %indvars.iv.i.i = phi i64 [ %indvars.iv.next.i.i, %11 ], [ %8, %6 ]
  %10 = icmp sgt i64 %indvars.iv.i.i, 0
  br i1 %10, label %11, label %sp_unsigned_bin_size.exit

11:                                               ; preds = %9
  %indvars.iv.next.i.i = add nsw i64 %indvars.iv.i.i, -1
  %12 = getelementptr inbounds nuw [129 x i64], ptr %7, i64 0, i64 %indvars.iv.next.i.i
  %13 = load i64, ptr %12, align 8, !tbaa !8
  %14 = icmp eq i64 %13, 0
  br i1 %14, label %9, label %.critedge.i.i, !llvm.loop !22

.critedge.i.i:                                    ; preds = %11
  %15 = trunc nsw i64 %indvars.iv.next.i.i to i32
  %16 = and i64 %indvars.iv.next.i.i, 4294967295
  %17 = getelementptr inbounds nuw [129 x i64], ptr %7, i64 0, i64 %16
  %18 = load i64, ptr %17, align 8, !tbaa !8
  %19 = shl nuw nsw i32 %15, 6
  %20 = icmp ugt i64 %18, 4294967295
  br i1 %20, label %24, label %.preheader.i.i

.preheader.i.i:                                   ; preds = %.critedge.i.i
  %.not2631.i.i = icmp eq i64 %18, 0
  br i1 %.not2631.i.i, label %sp_unsigned_bin_size.exit, label %.lr.ph.preheader.i.i

.lr.ph.preheader.i.i:                             ; preds = %.preheader.i.i
  %21 = tail call range(i64 32, 65) i64 @llvm.ctlz.i64(i64 %18, i1 true)
  %22 = trunc nuw nsw i64 %21 to i32
  %reass.sub.i.i = add nuw i32 %19, 64
  %23 = sub nuw i32 %reass.sub.i.i, %22
  br label %sp_unsigned_bin_size.exit

24:                                               ; preds = %.critedge.i.i
  %25 = add nuw nsw i32 %19, 64
  %26 = icmp sgt i64 %18, -1
  br i1 %26, label %.lr.ph36.i.i, label %sp_unsigned_bin_size.exit

.lr.ph36.i.i:                                     ; preds = %24, %.lr.ph36.i.i
  %.035.i.i = phi i64 [ %28, %.lr.ph36.i.i ], [ %18, %24 ]
  %.334.i.i = phi i32 [ %27, %.lr.ph36.i.i ], [ %25, %24 ]
  %27 = add nsw i32 %.334.i.i, -1
  %28 = shl nuw i64 %.035.i.i, 1
  %29 = icmp sgt i64 %28, -1
  br i1 %29, label %.lr.ph36.i.i, label %sp_unsigned_bin_size.exit, !llvm.loop !23

sp_unsigned_bin_size.exit:                        ; preds = %9, %.lr.ph36.i.i, %4, %.preheader.i.i, %.lr.ph.preheader.i.i, %24
  %.2.i.i = phi i32 [ 0, %4 ], [ %25, %24 ], [ %19, %.preheader.i.i ], [ %23, %.lr.ph.preheader.i.i ], [ %27, %.lr.ph36.i.i ], [ 0, %9 ]
  %30 = add nsw i32 %.2.i.i, 7
  %31 = sdiv i32 %30, 8
  %32 = sext i32 %0 to i64
  %33 = getelementptr inbounds i8, ptr %2, i64 %32
  %34 = icmp ne ptr %2, null
  %35 = icmp sgt i32 %.2.i.i, -15
  %or.cond3.not.i = and i1 %34, %35
  br i1 %or.cond3.not.i, label %36, label %sp_to_unsigned_bin_len.exit

36:                                               ; preds = %sp_unsigned_bin_size.exit
  %37 = icmp ne i16 %5, 0
  %38 = add nsw i32 %.2.i.i, -1
  %39 = icmp ult i32 %38, -15
  %or.cond.i = and i1 %39, %37
  br i1 %or.cond.i, label %.lr.ph.i, label %.critedge.i

.lr.ph.i:                                         ; preds = %36
  %40 = add nsw i32 %31, -1
  %41 = getelementptr inbounds nuw i8, ptr %1, i64 8
  br label %42

42:                                               ; preds = %.loopexit45.i, %.lr.ph.i
  %indvars.iv62.i = phi i64 [ 0, %.lr.ph.i ], [ %indvars.iv.next63.i, %.loopexit45.i ]
  %.152.i = phi i32 [ %40, %.lr.ph.i ], [ %indvars.i, %.loopexit45.i ]
  %43 = load i16, ptr %1, align 8, !tbaa !12
  %44 = zext i16 %43 to i64
  %45 = icmp samesign ult i64 %indvars.iv62.i, %44
  br i1 %45, label %46, label %.lr.ph59.preheader.i.loopexit

46:                                               ; preds = %42
  %47 = getelementptr inbounds nuw [129 x i64], ptr %41, i64 0, i64 %indvars.iv62.i
  %48 = load i64, ptr %47, align 8, !tbaa !8
  %49 = zext nneg i32 %.152.i to i64
  br label %50

50:                                               ; preds = %61, %46
  %indvars.iv.i = phi i64 [ %49, %46 ], [ %indvars.iv.next.i, %61 ]
  %.050.i = phi i64 [ %48, %46 ], [ %62, %61 ]
  %.03149.i = phi i32 [ 0, %46 ], [ %63, %61 ]
  %51 = trunc i64 %.050.i to i8
  %52 = getelementptr inbounds nuw i8, ptr %33, i64 %indvars.iv.i
  store i8 %51, ptr %52, align 1, !tbaa !13
  %53 = trunc nuw i64 %indvars.iv.i to i32
  %54 = icmp slt i32 %53, 1
  br i1 %54, label %.loopexit45.thread.i, label %61

.loopexit45.thread.i:                             ; preds = %50
  %55 = load i16, ptr %1, align 8, !tbaa !12
  %56 = zext i16 %55 to i64
  %57 = add nuw nsw i64 %56, 4294967295
  %58 = and i64 %57, 4294967295
  %59 = icmp samesign ult i64 %indvars.iv62.i, %58
  %60 = icmp ugt i64 %.050.i, 255
  %or.cond5.i = select i1 %59, i1 true, i1 %60
  br i1 %or.cond5.i, label %sp_to_unsigned_bin_len.exit, label %.loopexit

61:                                               ; preds = %50
  %62 = lshr i64 %.050.i, 8
  %indvars.iv.next.i = add nsw i64 %indvars.iv.i, -1
  %63 = add nuw nsw i32 %.03149.i, 8
  %64 = icmp samesign ult i32 %.03149.i, 56
  br i1 %64, label %50, label %.loopexit45.i, !llvm.loop !110

.loopexit45.i:                                    ; preds = %61
  %indvars.i = trunc i64 %indvars.iv.next.i to i32
  %indvars.iv.next63.i = add nuw nsw i64 %indvars.iv62.i, 1
  %65 = icmp sgt i32 %indvars.i, -1
  br i1 %65, label %42, label %.loopexit, !llvm.loop !111

.critedge.i:                                      ; preds = %36
  %.off = add i32 %.2.i.i, 14
  %.not = icmp ult i32 %.off, 15
  br i1 %.not, label %.loopexit, label %.lr.ph59.preheader.i

.lr.ph59.preheader.i.loopexit:                    ; preds = %42
  %66 = add nuw i32 %.152.i, 1
  br label %.lr.ph59.preheader.i

.lr.ph59.preheader.i:                             ; preds = %.lr.ph59.preheader.i.loopexit, %.critedge.i
  %.03379.i = phi i32 [ %31, %.critedge.i ], [ %66, %.lr.ph59.preheader.i.loopexit ]
  %67 = zext i32 %.03379.i to i64
  tail call void @llvm.memset.p0.i64(ptr noundef nonnull align 1 dereferenceable(1) %33, i8 0, i64 %67, i1 false), !tbaa !13
  br label %.loopexit

.loopexit:                                        ; preds = %.loopexit45.i, %.critedge.i, %.lr.ph59.preheader.i, %.loopexit45.thread.i
  %68 = add nsw i32 %31, %0
  br label %sp_to_unsigned_bin_len.exit

sp_to_unsigned_bin_len.exit:                      ; preds = %sp_unsigned_bin_size.exit, %3, %.loopexit45.thread.i, %.loopexit
  %69 = phi i32 [ %68, %.loopexit ], [ -98, %.loopexit45.thread.i ], [ -98, %3 ], [ -98, %sp_unsigned_bin_size.exit ]
  ret i32 %69
}